; Function Attrs: mustprogress nofree norecurse nosync nounwind memory(read, argmem: readwrite, inaccessiblemem: none) uwtable
define hidden void @_ZN6Assimp3IFC14GetBoundingBoxERKSt6vectorIN10ClipperLib8IntPointESaIS3_EE(ptr dead_on_unwind noalias writable writeonly sret(%"struct.std::pair.3") align 8 captures(none) %0, ptr noundef nonnull readonly align 8 captures(none) dereferenceable(24) %1) local_unnamed_addr #4 {
  %3 = load ptr, ptr %1, align 8
  %4 = getelementptr inbounds nuw i8, ptr %1, i64 8
  %5 = load ptr, ptr %4, align 8
  %.not32 = icmp eq ptr %3, %5
  br i1 %.not32, label %._crit_edge, label %.lr.ph

._crit_edge:                                      ; preds = %.lr.ph, %2
  %.sroa.7.0.lcssa = phi double [ -1.000000e+10, %2 ], [ %25, %.lr.ph ]
  %.sroa.029.0.lcssa = phi double [ -1.000000e+10, %2 ], [ %23, %.lr.ph ]
  %.sroa.731.0.lcssa = phi double [ 1.000000e+10, %2 ], [ %21, %.lr.ph ]
  %.sroa.030.0.lcssa = phi double [ 1.000000e+10, %2 ], [ %19, %.lr.ph ]
  store double %.sroa.030.0.lcssa, ptr %0, align 8
  %.sroa.731.0..sroa_idx = getelementptr inbounds nuw i8, ptr %0, i64 8
  store double %.sroa.731.0.lcssa, ptr %.sroa.731.0..sroa_idx, align 8
  %6 = getelementptr inbounds nuw i8, ptr %0, i64 16
  store double %.sroa.029.0.lcssa, ptr %6, align 8
  %.sroa.7.0..sroa_idx = getelementptr inbounds nuw i8, ptr %0, i64 24
  store double %.sroa.7.0.lcssa, ptr %.sroa.7.0..sroa_idx, align 8
  ret void

.lr.ph:                                           ; preds = %2, %.lr.ph
  %.sroa.030.037 = phi double [ %19, %.lr.ph ], [ 1.000000e+10, %2 ]
  %.sroa.731.036 = phi double [ %21, %.lr.ph ], [ 1.000000e+10, %2 ]
  %.sroa.029.035 = phi double [ %23, %.lr.ph ], [ -1.000000e+10, %2 ]
  %.sroa.7.034 = phi double [ %25, %.lr.ph ], [ -1.000000e+10, %2 ]
  %.sroa.025.033 = phi ptr [ %26, %.lr.ph ], [ %3, %2 ]
  %7 = load i64, ptr %.sroa.025.033, align 8
  %8 = uitofp i64 %7 to double
  %9 = fdiv double %8, 0x41D6A09E66400000
  %10 = getelementptr inbounds nuw i8, ptr %.sroa.025.033, i64 8
  %11 = load i64, ptr %10, align 8
  %12 = uitofp i64 %11 to double
  %13 = fdiv double %12, 0x41D6A09E66400000
  %14 = fcmp ogt double %9, 1.000000e+00
  %15 = select i1 %14, double 1.000000e+00, double %9
  %16 = fcmp ogt double %13, 1.000000e+00
  %17 = select i1 %16, double 1.000000e+00, double %13
  %18 = fcmp olt double %15, %.sroa.030.037
  %19 = select i1 %18, double %15, double %.sroa.030.037
  %20 = fcmp olt double %17, %.sroa.731.036
  %21 = select i1 %20, double %17, double %.sroa.731.036
  %22 = fcmp olt double %.sroa.029.035, %15
  %23 = select i1 %22, double %15, double %.sroa.029.035
  %24 = fcmp olt double %.sroa.7.034, %17
  %25 = select i1 %24, double %17, double %.sroa.7.034
  %26 = getelementptr inbounds nuw i8, ptr %.sroa.025.033, i64 16
  %.not = icmp eq ptr %26, %5
  br i1 %.not, label %._crit_edge, label %.lr.ph
}